; Function Attrs: nounwind uwtable
define dso_local i64 @rdbSaveAuxField(ptr noundef %0, ptr noundef %1, i64 noundef %2, ptr noundef %3, i64 noundef %4) local_unnamed_addr #0 {
  %6 = alloca i8, align 1
  call void @llvm.lifetime.start.p0(i64 1, ptr nonnull %6)
  store i8 -6, ptr %6, align 1, !tbaa !59
  %.not.i.i = icmp eq ptr %0, null
  br i1 %.not.i.i, label %.loopexit, label %7

7:                                                ; preds = %5
  %8 = getelementptr inbounds nuw i8, ptr %0, i64 48
  %9 = load i64, ptr %8, align 8, !tbaa !53
  %10 = and i64 %9, 6
  %.not.i.i.i = icmp eq i64 %10, 0
  br i1 %.not.i.i.i, label %.preheader.i.i.i, label %rdbSaveType.exit.thread

.preheader.i.i.i:                                 ; preds = %7
  %11 = getelementptr inbounds nuw i8, ptr %0, i64 64
  %12 = getelementptr inbounds nuw i8, ptr %0, i64 32
  %13 = getelementptr inbounds nuw i8, ptr %0, i64 8
  %14 = getelementptr inbounds nuw i8, ptr %0, i64 56
  br label %15

15:                                               ; preds = %27, %.preheader.i.i.i
  %.02539.i.i.i = phi i64 [ 1, %.preheader.i.i.i ], [ %29, %27 ]
  %.02738.i.i.i = phi ptr [ %6, %.preheader.i.i.i ], [ %28, %27 ]
  %16 = load i64, ptr %11, align 8, !tbaa !55
  %.not32.not.i.i.i = icmp eq i64 %16, 0
  %17 = call i64 @llvm.umin.i64(i64 %16, i64 %.02539.i.i.i)
  %18 = select i1 %.not32.not.i.i.i, i64 %.02539.i.i.i, i64 %17
  %19 = load ptr, ptr %12, align 8, !tbaa !56
  %.not33.i.i.i = icmp eq ptr %19, null
  br i1 %.not33.i.i.i, label %21, label %20

20:                                               ; preds = %15
  call void %19(ptr noundef nonnull %0, ptr noundef %.02738.i.i.i, i64 noundef %18) #23
  br label %21

21:                                               ; preds = %20, %15
  %22 = load ptr, ptr %13, align 8, !tbaa !57
  %23 = call i64 %22(ptr noundef nonnull %0, ptr noundef %.02738.i.i.i, i64 noundef %18) #23
  %24 = icmp eq i64 %23, 0
  br i1 %24, label %.thread.i.i.i, label %27

.thread.i.i.i:                                    ; preds = %21
  %25 = load i64, ptr %8, align 8, !tbaa !53
  %26 = or i64 %25, 2
  store i64 %26, ptr %8, align 8, !tbaa !53
  br label %rdbSaveType.exit.thread

27:                                               ; preds = %21
  %28 = getelementptr inbounds nuw i8, ptr %.02738.i.i.i, i64 %18
  %29 = sub i64 %.02539.i.i.i, %18
  %30 = load i64, ptr %14, align 8, !tbaa !58
  %31 = add i64 %30, %18
  store i64 %31, ptr %14, align 8, !tbaa !58
  %.not31.i.i.i = icmp eq i64 %29, 0
  br i1 %.not31.i.i.i, label %.loopexit, label %15

rdbSaveType.exit.thread:                          ; preds = %7, %.thread.i.i.i
  call void @llvm.lifetime.end.p0(i64 1, ptr nonnull %6)
  br label %40

.loopexit:                                        ; preds = %27, %5
  call void @llvm.lifetime.end.p0(i64 1, ptr nonnull %6)
  %32 = call i64 @rdbSaveRawString(ptr noundef %0, ptr noundef %1, i64 noundef %2)
  %33 = icmp eq i64 %32, -1
  br i1 %33, label %40, label %34

34:                                               ; preds = %.loopexit
  %35 = call i64 @rdbSaveRawString(ptr noundef %0, ptr noundef %3, i64 noundef %4)
  %36 = icmp eq i64 %35, -1
  br i1 %36, label %40, label %37

37:                                               ; preds = %34
  %38 = add nuw nsw i64 %32, 1
  %39 = add nsw i64 %38, %35
  br label %40

40:                                               ; preds = %rdbSaveType.exit.thread, %34, %.loopexit, %37
  %.0 = phi i64 [ %39, %37 ], [ -1, %.loopexit ], [ -1, %34 ], [ -1, %rdbSaveType.exit.thread ]
  ret i64 %.0
}